target datalayout = "e-m:e-p270:32:32-p271:32:32-p272:64:64-i64:64-i128:128-f80:128-n8:16:32:64-S128"
target triple = "x86_64-pc-linux-gnu"

%struct.cmsCIELab = type { double, double, double }
%struct.cmsCIELCh = type { double, double, double }

; Function Attrs: nounwind uwtable
define internal double @atan2deg(double noundef %0, double noundef %1) #0 {
  %3 = alloca double, align 8
  %4 = alloca double, align 8
  %5 = alloca double, align 8
  store double %0, ptr %3, align 8
  store double %1, ptr %4, align 8
  %6 = load double, ptr %3, align 8
  %7 = fcmp oeq double %6, 0.000000e+00
  br i1 %7, label %8, label %12

8:                                                ; preds = %2
  %9 = load double, ptr %4, align 8
  %10 = fcmp oeq double %9, 0.000000e+00
  br i1 %10, label %11, label %12

11:                                               ; preds = %8
  store double 0.000000e+00, ptr %5, align 8
  br label %16

12:                                               ; preds = %8, %2
  %13 = load double, ptr %3, align 8
  %14 = load double, ptr %4, align 8
  %15 = call double @atan2(double noundef %13, double noundef %14) #4
  store double %15, ptr %5, align 8
  br label %16

16:                                               ; preds = %12, %11
  %17 = load double, ptr %5, align 8
  %18 = fmul double %17, 0x404CA5DC1A63C1F8
  store double %18, ptr %5, align 8
  br label %19

19:                                               ; preds = %22, %16
  %20 = load double, ptr %5, align 8
  %21 = fcmp ogt double %20, 3.600000e+02
  br i1 %21, label %22, label %25

22:                                               ; preds = %19
  %23 = load double, ptr %5, align 8
  %24 = fsub double %23, 3.600000e+02
  store double %24, ptr %5, align 8
  br label %19, !llvm.loop !6

25:                                               ; preds = %19
  br label %26

26:                                               ; preds = %29, %25
  %27 = load double, ptr %5, align 8
  %28 = fcmp olt double %27, 0.000000e+00
  br i1 %28, label %29, label %32

29:                                               ; preds = %26
  %30 = load double, ptr %5, align 8
  %31 = fadd double %30, 3.600000e+02
  store double %31, ptr %5, align 8
  br label %26, !llvm.loop !8

32:                                               ; preds = %26
  %33 = load double, ptr %5, align 8
  ret double %33
}

; Function Attrs: nounwind uwtable
define internal double @Sqr(double noundef %0) #0 {
  %2 = alloca double, align 8
  store double %0, ptr %2, align 8
  %3 = load double, ptr %2, align 8
  %4 = load double, ptr %2, align 8
  %5 = fmul double %3, %4
  ret double %5
}

; Function Attrs: nounwind uwtable
define hidden double @cmsDeltaE(ptr noundef %0, ptr noundef %1) #0 {
  %3 = alloca ptr, align 8
  %4 = alloca ptr, align 8
  %5 = alloca double, align 8
  %6 = alloca double, align 8
  %7 = alloca double, align 8
  store ptr %0, ptr %3, align 8
  store ptr %1, ptr %4, align 8
  %8 = load ptr, ptr %3, align 8
  %9 = getelementptr inbounds %struct.cmsCIELab, ptr %8, i32 0, i32 0
  %10 = load double, ptr %9, align 8
  %11 = load ptr, ptr %4, align 8
  %12 = getelementptr inbounds %struct.cmsCIELab, ptr %11, i32 0, i32 0
  %13 = load double, ptr %12, align 8
  %14 = fsub double %10, %13
  %15 = call double @llvm.fabs.f64(double %14)
  store double %15, ptr %5, align 8
  %16 = load ptr, ptr %3, align 8
  %17 = getelementptr inbounds %struct.cmsCIELab, ptr %16, i32 0, i32 1
  %18 = load double, ptr %17, align 8
  %19 = load ptr, ptr %4, align 8
  %20 = getelementptr inbounds %struct.cmsCIELab, ptr %19, i32 0, i32 1
  %21 = load double, ptr %20, align 8
  %22 = fsub double %18, %21
  %23 = call double @llvm.fabs.f64(double %22)
  store double %23, ptr %6, align 8
  %24 = load ptr, ptr %3, align 8
  %25 = getelementptr inbounds %struct.cmsCIELab, ptr %24, i32 0, i32 2
  %26 = load double, ptr %25, align 8
  %27 = load ptr, ptr %4, align 8
  %28 = getelementptr inbounds %struct.cmsCIELab, ptr %27, i32 0, i32 2
  %29 = load double, ptr %28, align 8
  %30 = fsub double %26, %29
  %31 = call double @llvm.fabs.f64(double %30)
  store double %31, ptr %7, align 8
  %32 = load double, ptr %5, align 8
  %33 = call double @Sqr(double noundef %32)
  %34 = load double, ptr %6, align 8
  %35 = call double @Sqr(double noundef %34)
  %36 = fadd double %33, %35
  %37 = load double, ptr %7, align 8
  %38 = call double @Sqr(double noundef %37)
  %39 = fadd double %36, %38
  %40 = call double @pow(double noundef %39, double noundef 5.000000e-01) #4
  ret double %40
}

; Function Attrs: nounwind uwtable
define hidden void @cmsLab2LCh(ptr noundef %0, ptr noundef %1) #0 {
  %3 = alloca ptr, align 8
  %4 = alloca ptr, align 8
  store ptr %0, ptr %3, align 8
  store ptr %1, ptr %4, align 8
  %5 = load ptr, ptr %4, align 8
  %6 = getelementptr inbounds %struct.cmsCIELab, ptr %5, i32 0, i32 0
  %7 = load double, ptr %6, align 8
  %8 = load ptr, ptr %3, align 8
  %9 = getelementptr inbounds %struct.cmsCIELCh, ptr %8, i32 0, i32 0
  store double %7, ptr %9, align 8
  %10 = load ptr, ptr %4, align 8
  %11 = getelementptr inbounds %struct.cmsCIELab, ptr %10, i32 0, i32 1
  %12 = load double, ptr %11, align 8
  %13 = call double @Sqr(double noundef %12)
  %14 = load ptr, ptr %4, align 8
  %15 = getelementptr inbounds %struct.cmsCIELab, ptr %14, i32 0, i32 2
  %16 = load double, ptr %15, align 8
  %17 = call double @Sqr(double noundef %16)
  %18 = fadd double %13, %17
  %19 = call double @pow(double noundef %18, double noundef 5.000000e-01) #4
  %20 = load ptr, ptr %3, align 8
  %21 = getelementptr inbounds %struct.cmsCIELCh, ptr %20, i32 0, i32 1
  store double %19, ptr %21, align 8
  %22 = load ptr, ptr %4, align 8
  %23 = getelementptr inbounds %struct.cmsCIELab, ptr %22, i32 0, i32 2
  %24 = load double, ptr %23, align 8
  %25 = load ptr, ptr %4, align 8
  %26 = getelementptr inbounds %struct.cmsCIELab, ptr %25, i32 0, i32 1
  %27 = load double, ptr %26, align 8
  %28 = call double @atan2deg(double noundef %24, double noundef %27)
  %29 = load ptr, ptr %3, align 8
  %30 = getelementptr inbounds %struct.cmsCIELCh, ptr %29, i32 0, i32 2
  store double %28, ptr %30, align 8
  ret void
}

; Function Attrs: nounwind uwtable
define hidden double @cmsCIE94DeltaE(ptr noundef %0, ptr noundef %1) #0 {
  %3 = alloca ptr, align 8
  %4 = alloca ptr, align 8
  %5 = alloca %struct.cmsCIELCh, align 8
  %6 = alloca %struct.cmsCIELCh, align 8
  %7 = alloca double, align 8
  %8 = alloca double, align 8
  %9 = alloca double, align 8
  %10 = alloca double, align 8
  %11 = alloca double, align 8
  %12 = alloca double, align 8
  %13 = alloca double, align 8
  %14 = alloca double, align 8
  store ptr %0, ptr %3, align 8
  store ptr %1, ptr %4, align 8
  %15 = load ptr, ptr %3, align 8
  %16 = getelementptr inbounds %struct.cmsCIELab, ptr %15, i32 0, i32 0
  %17 = load double, ptr %16, align 8
  %18 = load ptr, ptr %4, align 8
  %19 = getelementptr inbounds %struct.cmsCIELab, ptr %18, i32 0, i32 0
  %20 = load double, ptr %19, align 8
  %21 = fsub double %17, %20
  %22 = call double @llvm.fabs.f64(double %21)
  store double %22, ptr %8, align 8
  %23 = load ptr, ptr %3, align 8
  call void @cmsLab2LCh(ptr noundef %5, ptr noundef %23)
  %24 = load ptr, ptr %4, align 8
  call void @cmsLab2LCh(ptr noundef %6, ptr noundef %24)
  %25 = getelementptr inbounds %struct.cmsCIELCh, ptr %5, i32 0, i32 1
  %26 = load double, ptr %25, align 8
  %27 = getelementptr inbounds %struct.cmsCIELCh, ptr %6, i32 0, i32 1
  %28 = load double, ptr %27, align 8
  %29 = fsub double %26, %28
  %30 = call double @llvm.fabs.f64(double %29)
  store double %30, ptr %9, align 8
  %31 = load ptr, ptr %3, align 8
  %32 = load ptr, ptr %4, align 8
  %33 = call double @cmsDeltaE(ptr noundef %31, ptr noundef %32)
  store double %33, ptr %7, align 8
  %34 = load double, ptr %7, align 8
  %35 = call double @Sqr(double noundef %34)
  %36 = load double, ptr %8, align 8
  %37 = call double @Sqr(double noundef %36)
  %38 = fsub double %35, %37
  %39 = load double, ptr %9, align 8
  %40 = call double @Sqr(double noundef %39)
  %41 = fsub double %38, %40
  store double %41, ptr %11, align 8
  %42 = load double, ptr %11, align 8
  %43 = fcmp olt double %42, 0.000000e+00
  br i1 %43, label %44, label %45

44:                                               ; preds = %2
  store double 0.000000e+00, ptr %10, align 8
  br label %48

45:                                               ; preds = %2
  %46 = load double, ptr %11, align 8
  %47 = call double @pow(double noundef %46, double noundef 5.000000e-01) #4
  store double %47, ptr %10, align 8
  br label %48

48:                                               ; preds = %45, %44
  %49 = getelementptr inbounds %struct.cmsCIELCh, ptr %5, i32 0, i32 1
  %50 = load double, ptr %49, align 8
  %51 = getelementptr inbounds %struct.cmsCIELCh, ptr %6, i32 0, i32 1
  %52 = load double, ptr %51, align 8
  %53 = fmul double %50, %52
  %54 = call double @sqrt(double noundef %53) #4
  store double %54, ptr %12, align 8
  %55 = load double, ptr %12, align 8
  %56 = call double @llvm.fmuladd.f64(double 4.800000e-02, double %55, double 1.000000e+00)
  store double %56, ptr %13, align 8
  %57 = load double, ptr %12, align 8
  %58 = call double @llvm.fmuladd.f64(double 1.400000e-02, double %57, double 1.000000e+00)
  store double %58, ptr %14, align 8
  %59 = load double, ptr %8, align 8
  %60 = call double @Sqr(double noundef %59)
  %61 = load double, ptr %9, align 8
  %62 = call double @Sqr(double noundef %61)
  %63 = load double, ptr %13, align 8
  %64 = call double @Sqr(double noundef %63)
  %65 = fdiv double %62, %64
  %66 = fadd double %60, %65
  %67 = load double, ptr %10, align 8
  %68 = call double @Sqr(double noundef %67)
  %69 = load double, ptr %14, align 8
  %70 = call double @Sqr(double noundef %69)
  %71 = fdiv double %68, %70
  %72 = fadd double %66, %71
  %73 = call double @sqrt(double noundef %72) #4
  ret double %73
}