; Function Attrs: nofree nounwind memory(write, argmem: readwrite) uwtable
define hidden double @cmsCIE94DeltaE(ptr nocapture noundef readonly %0, ptr nocapture noundef readonly %1) local_unnamed_addr #4 {
  %3 = load double, ptr %0, align 8
  %4 = load double, ptr %1, align 8
  %5 = fsub double %3, %4
  %6 = getelementptr inbounds i8, ptr %0, i64 8
  %7 = load double, ptr %6, align 8
  %8 = fmul double %7, %7
  %9 = getelementptr inbounds i8, ptr %0, i64 16
  %10 = load double, ptr %9, align 8
  %11 = fmul double %10, %10
  %12 = fadd double %8, %11
  %13 = tail call double @pow(double noundef %12, double noundef 5.000000e-01) #10
  %14 = load double, ptr %9, align 8
  %15 = load double, ptr %6, align 8
  %16 = fcmp oeq double %14, 0.000000e+00
  %17 = fcmp oeq double %15, 0.000000e+00
  %or.cond.i.i = and i1 %16, %17
  br i1 %or.cond.i.i, label %cmsLab2LCh.exit, label %18

18:                                               ; preds = %2
  %19 = tail call double @atan2(double noundef %14, double noundef %15) #10
  br label %cmsLab2LCh.exit

cmsLab2LCh.exit:                                  ; preds = %18, %2
  %20 = getelementptr inbounds i8, ptr %1, i64 8
  %21 = load double, ptr %20, align 8
  %22 = fmul double %21, %21
  %23 = getelementptr inbounds i8, ptr %1, i64 16
  %24 = load double, ptr %23, align 8
  %25 = fmul double %24, %24
  %26 = fadd double %22, %25
  %27 = tail call double @pow(double noundef %26, double noundef 5.000000e-01) #10
  %28 = load double, ptr %23, align 8
  %29 = load double, ptr %20, align 8
  %30 = fcmp oeq double %28, 0.000000e+00
  %31 = fcmp oeq double %29, 0.000000e+00
  %or.cond.i.i19 = and i1 %30, %31
  br i1 %or.cond.i.i19, label %cmsLab2LCh.exit27, label %32

32:                                               ; preds = %cmsLab2LCh.exit
  %33 = tail call double @atan2(double noundef %28, double noundef %29) #10
  br label %cmsLab2LCh.exit27

cmsLab2LCh.exit27:                                ; preds = %32, %cmsLab2LCh.exit
  %34 = fsub double %13, %27
  %35 = load double, ptr %0, align 8
  %36 = load double, ptr %1, align 8
  %37 = load double, ptr %6, align 8
  %38 = load double, ptr %20, align 8
  %39 = fsub double %37, %38
  %40 = load double, ptr %9, align 8
  %41 = load double, ptr %23, align 8
  %42 = fmul double %39, %39
  %43 = insertelement <2 x double> poison, double %35, i64 0
  %44 = insertelement <2 x double> %43, double %40, i64 1
  %45 = insertelement <2 x double> poison, double %36, i64 0
  %46 = insertelement <2 x double> %45, double %41, i64 1
  %47 = fsub <2 x double> %44, %46
  %48 = fmul <2 x double> %47, %47
  %49 = extractelement <2 x double> %48, i64 0
  %50 = fadd double %49, %42
  %51 = extractelement <2 x double> %48, i64 1
  %52 = fadd double %50, %51
  %53 = tail call double @pow(double noundef %52, double noundef 5.000000e-01) #10
  %54 = fmul double %53, %53
  %55 = fmul double %5, %5
  %56 = fsub double %54, %55
  %57 = fmul double %34, %34
  %58 = fsub double %56, %57
  %59 = fcmp olt double %58, 0.000000e+00
  br i1 %59, label %62, label %60

60:                                               ; preds = %cmsLab2LCh.exit27
  %61 = tail call double @pow(double noundef %58, double noundef 5.000000e-01) #10
  br label %62

62:                                               ; preds = %cmsLab2LCh.exit27, %60
  %.0 = phi double [ %61, %60 ], [ 0.000000e+00, %cmsLab2LCh.exit27 ]
  %63 = fmul double %13, %27
  %64 = tail call double @sqrt(double noundef %63) #10
  %65 = fmul double %.0, %.0
  %66 = insertelement <2 x double> poison, double %64, i64 0
  %67 = shufflevector <2 x double> %66, <2 x double> poison, <2 x i32> zeroinitializer
  %68 = tail call <2 x double> @llvm.fmuladd.v2f64(<2 x double> %67, <2 x double> <double 1.400000e-02, double 4.800000e-02>, <2 x double> <double 1.000000e+00, double 1.000000e+00>)
  %69 = fmul <2 x double> %68, %68
  %70 = insertelement <2 x double> poison, double %65, i64 0
  %71 = insertelement <2 x double> %70, double %57, i64 1
  %72 = fdiv <2 x double> %71, %69
  %73 = extractelement <2 x double> %72, i64 1
  %74 = fadd double %55, %73
  %75 = extractelement <2 x double> %72, i64 0
  %76 = fadd double %75, %74
  %sqrt = tail call double @llvm.sqrt.f64(double %76)
  ret double %sqrt
}